; ModuleID = '47/4727.c'
source_filename = "47/4727.c"
target datalayout = "e-m:e-p270:32:32-p271:32:32-p272:64:64-i64:64-f80:128-n8:16:32:64-S128"
target triple = "x86_64-pc-linux-gnu"

@.str = private unnamed_addr constant [3 x i8] c"%d\00", align 1
@.str.1 = private unnamed_addr constant [4 x i8] c"%d \00", align 1

; Function Attrs: noinline nounwind uwtable
define dso_local void @main() #0 {
  %1 = alloca i32, align 4
  %2 = alloca i32, align 4
  %3 = alloca i32, align 4
  %4 = alloca i32*, align 8
  %5 = alloca i32*, align 8
  %6 = alloca [101 x i32], align 16
  %7 = call i32 (i8*, ...) @__isoc99_scanf(i8* getelementptr inbounds ([3 x i8], [3 x i8]* @.str, i64 0, i64 0), i32* %1)
  %8 = getelementptr inbounds [101 x i32], [101 x i32]* %6, i64 0, i64 0
  store i32* %8, i32** %4, align 8
  br label %9

9:                                                ; preds = %19, %0
  %10 = load i32*, i32** %4, align 8
  %11 = getelementptr inbounds [101 x i32], [101 x i32]* %6, i64 0, i64 0
  %12 = load i32, i32* %1, align 4
  %13 = sext i32 %12 to i64
  %14 = getelementptr inbounds i32, i32* %11, i64 %13
  %15 = icmp ult i32* %10, %14
  br i1 %15, label %16, label %22

16:                                               ; preds = %9
  %17 = load i32*, i32** %4, align 8
  %18 = call i32 (i8*, ...) @__isoc99_scanf(i8* getelementptr inbounds ([3 x i8], [3 x i8]* @.str, i64 0, i64 0), i32* %17)
  br label %19

19:                                               ; preds = %16
  %20 = load i32*, i32** %4, align 8
  %21 = getelementptr inbounds i32, i32* %20, i32 1
  store i32* %21, i32** %4, align 8
  br label %9

22:                                               ; preds = %9
  %23 = load i32, i32* %1, align 4
  %24 = sub nsw i32 %23, 1
  %25 = sdiv i32 %24, 2
  store i32 %25, i32* %3, align 4
  %26 = getelementptr inbounds [101 x i32], [101 x i32]* %6, i64 0, i64 0
  store i32* %26, i32** %4, align 8
  %27 = getelementptr inbounds [101 x i32], [101 x i32]* %6, i64 0, i64 0
  %28 = load i32, i32* %1, align 4
  %29 = sext i32 %28 to i64
  %30 = getelementptr inbounds i32, i32* %27, i64 %29
  %31 = getelementptr inbounds i32, i32* %30, i64 -1
  store i32* %31, i32** %5, align 8
  br label %32

32:                                               ; preds = %48, %22
  %33 = load i32*, i32** %4, align 8
  %34 = getelementptr inbounds [101 x i32], [101 x i32]* %6, i64 0, i64 0
  %35 = load i32, i32* %3, align 4
  %36 = sext i32 %35 to i64
  %37 = getelementptr inbounds i32, i32* %34, i64 %36
  %38 = getelementptr inbounds i32, i32* %37, i64 1
  %39 = icmp ult i32* %33, %38
  br i1 %39, label %40, label %53

40:                                               ; preds = %32
  %41 = load i32*, i32** %4, align 8
  %42 = load i32, i32* %41, align 4
  store i32 %42, i32* %2, align 4
  %43 = load i32*, i32** %5, align 8
  %44 = load i32, i32* %43, align 4
  %45 = load i32*, i32** %4, align 8
  store i32 %44, i32* %45, align 4
  %46 = load i32, i32* %2, align 4
  %47 = load i32*, i32** %5, align 8
  store i32 %46, i32* %47, align 4
  br label %48

48:                                               ; preds = %40
  %49 = load i32*, i32** %4, align 8
  %50 = getelementptr inbounds i32, i32* %49, i32 1
  store i32* %50, i32** %4, align 8
  %51 = load i32*, i32** %5, align 8
  %52 = getelementptr inbounds i32, i32* %51, i32 -1
  store i32* %52, i32** %5, align 8
  br label %32

53:                                               ; preds = %32
  %54 = getelementptr inbounds [101 x i32], [101 x i32]* %6, i64 0, i64 0
  store i32* %54, i32** %4, align 8
  br label %55

55:                                               ; preds = %67, %53
  %56 = load i32*, i32** %4, align 8
  %57 = getelementptr inbounds [101 x i32], [101 x i32]* %6, i64 0, i64 0
  %58 = load i32, i32* %1, align 4
  %59 = sext i32 %58 to i64
  %60 = getelementptr inbounds i32, i32* %57, i64 %59
  %61 = getelementptr inbounds i32, i32* %60, i64 -1
  %62 = icmp ult i32* %56, %61
  br i1 %62, label %63, label %70

63:                                               ; preds = %55
  %64 = load i32*, i32** %4, align 8
  %65 = load i32, i32* %64, align 4
  %66 = call i32 (i8*, ...) @printf(i8* getelementptr inbounds ([4 x i8], [4 x i8]* @.str.1, i64 0, i64 0), i32 %65)
  br label %67

67:                                               ; preds = %63
  %68 = load i32*, i32** %4, align 8
  %69 = getelementptr inbounds i32, i32* %68, i32 1
  store i32* %69, i32** %4, align 8
  br label %55

70:                                               ; preds = %55
  %71 = getelementptr inbounds [101 x i32], [101 x i32]* %6, i64 0, i64 0
  %72 = load i32, i32* %1, align 4
  %73 = sext i32 %72 to i64
  %74 = getelementptr inbounds i32, i32* %71, i64 %73
  %75 = getelementptr inbounds i32, i32* %74, i64 -1
  %76 = load i32, i32* %75, align 4
  %77 = call i32 (i8*, ...) @printf(i8* getelementptr inbounds ([3 x i8], [3 x i8]* @.str, i64 0, i64 0), i32 %76)
  ret void
}

declare dso_local i32 @__isoc99_scanf(i8*, ...) #1

declare dso_local i32 @printf(i8*, ...) #1


!llvm.module.flags = !{!0}
!llvm.ident = !{!1}

!0 = !{i32 1, !"wchar_size", i32 4}
!1 = !{!"clang version 10.0.0-4ubuntu1 "}
