; ModuleID = 'source-C-CXX/46/4727.c'
source_filename = "source-C-CXX/46/4727.c"
target datalayout = "e-m:e-p270:32:32-p271:32:32-p272:64:64-i64:64-f80:128-n8:16:32:64-S128"
target triple = "x86_64-pc-linux-gnu"

@.str = private unnamed_addr constant [3 x i8] c"%d\00", align 1
@.str.1 = private unnamed_addr constant [4 x i8] c"%d \00", align 1

; Function Attrs: nofree nounwind sspstrong uwtable
define dso_local void @main() local_unnamed_addr #0 {
  %1 = alloca i32, align 4
  %2 = alloca [101 x i32], align 16
  %3 = bitcast i32* %1 to i8*
  call void @llvm.lifetime.start.p0i8(i64 4, i8* nonnull %3) #3
  %4 = bitcast [101 x i32]* %2 to i8*
  call void @llvm.lifetime.start.p0i8(i64 404, i8* nonnull %4) #3
  %5 = call i32 (i8*, ...) @__isoc99_scanf(i8* getelementptr inbounds ([3 x i8], [3 x i8]* @.str, i64 0, i64 0), i32* nonnull %1)
  %6 = getelementptr inbounds [101 x i32], [101 x i32]* %2, i64 0, i64 0
  %7 = load i32, i32* %1, align 4, !tbaa !5
  %8 = icmp sgt i32 %7, 0
  br i1 %8, label %9, label %17

9:                                                ; preds = %0, %9
  %10 = phi i32* [ %12, %9 ], [ %6, %0 ]
  %11 = call i32 (i8*, ...) @__isoc99_scanf(i8* getelementptr inbounds ([3 x i8], [3 x i8]* @.str, i64 0, i64 0), i32* nonnull %10)
  %12 = getelementptr inbounds i32, i32* %10, i64 1
  %13 = load i32, i32* %1, align 4, !tbaa !5
  %14 = sext i32 %13 to i64
  %15 = getelementptr inbounds [101 x i32], [101 x i32]* %2, i64 0, i64 %14
  %16 = icmp ult i32* %12, %15
  br i1 %16, label %9, label %17, !llvm.loop !9

17:                                               ; preds = %9, %0
  %18 = phi i32 [ %7, %0 ], [ %13, %9 ]
  %19 = add nsw i32 %18, -1
  %20 = sdiv i32 %19, 2
  %21 = sext i32 %20 to i64
  %22 = getelementptr inbounds [101 x i32], [101 x i32]* %2, i64 0, i64 %21
  %23 = getelementptr inbounds i32, i32* %22, i64 1
  %24 = icmp ult i32* %6, %23
  br i1 %24, label %25, label %28

25:                                               ; preds = %17
  %26 = sext i32 %18 to i64
  %27 = getelementptr inbounds [101 x i32], [101 x i32]* %2, i64 0, i64 %26
  br label %33

28:                                               ; preds = %33, %17
  %29 = sext i32 %18 to i64
  %30 = getelementptr inbounds [101 x i32], [101 x i32]* %2, i64 0, i64 %29
  %31 = getelementptr inbounds i32, i32* %30, i64 -1
  %32 = icmp ult i32* %6, %31
  br i1 %32, label %41, label %51

33:                                               ; preds = %25, %33
  %34 = phi i32* [ %36, %33 ], [ %27, %25 ]
  %35 = phi i32* [ %39, %33 ], [ %6, %25 ]
  %36 = getelementptr inbounds i32, i32* %34, i64 -1
  %37 = load i32, i32* %35, align 4, !tbaa !5
  %38 = load i32, i32* %36, align 4, !tbaa !5
  store i32 %38, i32* %35, align 4, !tbaa !5
  store i32 %37, i32* %36, align 4, !tbaa !5
  %39 = getelementptr inbounds i32, i32* %35, i64 1
  %40 = icmp ult i32* %35, %22
  br i1 %40, label %33, label %28, !llvm.loop !11

41:                                               ; preds = %28, %41
  %42 = phi i32* [ %45, %41 ], [ %6, %28 ]
  %43 = load i32, i32* %42, align 4, !tbaa !5
  %44 = call i32 (i8*, ...) @printf(i8* nonnull dereferenceable(1) getelementptr inbounds ([4 x i8], [4 x i8]* @.str.1, i64 0, i64 0), i32 %43)
  %45 = getelementptr inbounds i32, i32* %42, i64 1
  %46 = load i32, i32* %1, align 4, !tbaa !5
  %47 = sext i32 %46 to i64
  %48 = getelementptr inbounds [101 x i32], [101 x i32]* %2, i64 0, i64 %47
  %49 = getelementptr inbounds i32, i32* %48, i64 -1
  %50 = icmp ult i32* %45, %49
  br i1 %50, label %41, label %51, !llvm.loop !12

51:                                               ; preds = %41, %28
  %52 = phi i32* [ %31, %28 ], [ %49, %41 ]
  %53 = load i32, i32* %52, align 4, !tbaa !5
  %54 = call i32 (i8*, ...) @printf(i8* nonnull dereferenceable(1) getelementptr inbounds ([3 x i8], [3 x i8]* @.str, i64 0, i64 0), i32 %53)
  call void @llvm.lifetime.end.p0i8(i64 404, i8* nonnull %4) #3
  call void @llvm.lifetime.end.p0i8(i64 4, i8* nonnull %3) #3
  ret void
}

; Function Attrs: argmemonly mustprogress nofree nosync nounwind willreturn
declare void @llvm.lifetime.start.p0i8(i64 immarg, i8* nocapture) #1

; Function Attrs: nofree nounwind
declare noundef i32 @__isoc99_scanf(i8* nocapture noundef readonly, ...) local_unnamed_addr #2

; Function Attrs: nofree nounwind
declare noundef i32 @printf(i8* nocapture noundef readonly, ...) local_unnamed_addr #2

; Function Attrs: argmemonly mustprogress nofree nosync nounwind willreturn
declare void @llvm.lifetime.end.p0i8(i64 immarg, i8* nocapture) #1


!llvm.module.flags = !{!0, !1, !2, !3}
!llvm.ident = !{!4}

!0 = !{i32 1, !"wchar_size", i32 4}
!1 = !{i32 7, !"PIC Level", i32 2}
!2 = !{i32 7, !"PIE Level", i32 2}
!3 = !{i32 7, !"uwtable", i32 1}
!4 = !{!"clang version 13.0.0"}
!5 = !{!6, !6, i64 0}
!6 = !{!"int", !7, i64 0}
!7 = !{!"omnipotent char", !8, i64 0}
!8 = !{!"Simple C/C++ TBAA"}
!9 = distinct !{!9, !10}
!10 = !{!"llvm.loop.mustprogress"}
!11 = distinct !{!11, !10}
!12 = distinct !{!12, !10}
